target datalayout = "e-m:e-p270:32:32-p271:32:32-p272:64:64-i64:64-i128:128-f80:128-n8:16:32:64-S128"
target triple = "x86_64-unknown-linux-gnu"

%"class.icu_75::UObject" = type { ptr }
%"class.icu_75::DateFormat" = type { %"class.icu_75::Format.base", ptr, ptr, %"class.icu_75::EnumSet", i32 }
%"class.icu_75::Format.base" = type <{ %"class.icu_75::UObject", [157 x i8], [157 x i8] }>
%"class.icu_75::EnumSet" = type { i32 }

; Function Attrs: mustprogress uwtable
define void @_ZN6icu_7510DateFormat10setLenientEa(ptr noundef nonnull align 8 dereferenceable(352) %this, i8 noundef signext %lenient) unnamed_addr #2 align 2 {
entry:
  %this.addr = alloca ptr, align 8
  %lenient.addr = alloca i8, align 1
  %status = alloca i32, align 4
  store ptr %this, ptr %this.addr, align 8
  store i8 %lenient, ptr %lenient.addr, align 1
  %this1 = load ptr, ptr %this.addr, align 8
  %fCalendar = getelementptr inbounds %"class.icu_75::DateFormat", ptr %this1, i32 0, i32 1
  %0 = load ptr, ptr %fCalendar, align 8
  %cmp = icmp ne ptr %0, null
  br i1 %cmp, label %if.then, label %if.end

if.then:                                          ; preds = %entry
  %fCalendar2 = getelementptr inbounds %"class.icu_75::DateFormat", ptr %this1, i32 0, i32 1
  %1 = load ptr, ptr %fCalendar2, align 8
  %2 = load i8, ptr %lenient.addr, align 1
  call void @_ZN6icu_758Calendar10setLenientEa(ptr noundef nonnull align 8 dereferenceable(618) %1, i8 noundef signext %2)
  br label %if.end

if.end:                                           ; preds = %if.then, %entry
  store i32 0, ptr %status, align 4
  %3 = load i8, ptr %lenient.addr, align 1
  %vtable = load ptr, ptr %this1, align 8
  %vfn = getelementptr inbounds ptr, ptr %vtable, i64 27
  %4 = load ptr, ptr %vfn, align 8
  %call = call noundef nonnull align 8 dereferenceable(352) ptr %4(ptr noundef nonnull align 8 dereferenceable(352) %this1, i32 noundef 0, i8 noundef signext %3, ptr noundef nonnull align 4 dereferenceable(4) %status)
  %5 = load i8, ptr %lenient.addr, align 1
  %vtable3 = load ptr, ptr %this1, align 8
  %vfn4 = getelementptr inbounds ptr, ptr %vtable3, i64 27
  %6 = load ptr, ptr %vfn4, align 8
  %call5 = call noundef nonnull align 8 dereferenceable(352) ptr %6(ptr noundef nonnull align 8 dereferenceable(352) %this1, i32 noundef 1, i8 noundef signext %5, ptr noundef nonnull align 4 dereferenceable(4) %status)
  ret void
}