; Function Attrs: mustprogress uwtable
define void @_ZN6icu_7510DateFormat10setLenientEa(ptr noundef nonnull align 8 dereferenceable(352) %this, i8 noundef signext %lenient) unnamed_addr #3 align 2 {
entry:
  %status = alloca i32, align 4
  %fCalendar = getelementptr inbounds i8, ptr %this, i64 328
  %0 = load ptr, ptr %fCalendar, align 8
  %cmp.not = icmp eq ptr %0, null
  br i1 %cmp.not, label %if.end, label %if.then

if.then:                                          ; preds = %entry
  tail call void @_ZN6icu_758Calendar10setLenientEa(ptr noundef nonnull align 8 dereferenceable(618) %0, i8 noundef signext %lenient)
  br label %if.end

if.end:                                           ; preds = %if.then, %entry
  store i32 0, ptr %status, align 4
  %vtable = load ptr, ptr %this, align 8
  %vfn = getelementptr inbounds i8, ptr %vtable, i64 216
  %1 = load ptr, ptr %vfn, align 8
  %call = call noundef nonnull align 8 dereferenceable(352) ptr %1(ptr noundef nonnull align 8 dereferenceable(352) %this, i32 noundef 0, i8 noundef signext %lenient, ptr noundef nonnull align 4 dereferenceable(4) %status)
  %vtable3 = load ptr, ptr %this, align 8
  %vfn4 = getelementptr inbounds i8, ptr %vtable3, i64 216
  %2 = load ptr, ptr %vfn4, align 8
  %call5 = call noundef nonnull align 8 dereferenceable(352) ptr %2(ptr noundef nonnull align 8 dereferenceable(352) %this, i32 noundef 1, i8 noundef signext %lenient, ptr noundef nonnull align 4 dereferenceable(4) %status)
  ret void
}